target datalayout = "e-m:e-p270:32:32-p271:32:32-p272:64:64-i64:64-i128:128-f80:128-n8:16:32:64-S128"
target triple = "x86_64-pc-linux-gnu"

%struct.PyModuleDef = type { %struct.PyModuleDef_Base, ptr, ptr, i64, ptr, ptr, ptr, ptr, ptr }
%struct.PyModuleDef_Base = type { %struct._object, ptr, i64, ptr }
%struct._object = type { %union.anon, ptr }
%union.anon = type { i64 }
%struct._keymap_entry = type { i8, ptr }
%struct._hist_entry = type { ptr, ptr, ptr }
%struct.readlinestate = type { ptr, ptr, ptr, ptr, ptr, ptr }
%struct.anon = type { i32, i32 }

@.str = private unnamed_addr constant [9 x i8] c"readline\00", align 1
@rl_library_version = external global ptr, align 8
@libedit_version_tag = internal constant [17 x i8] c"EditLine wrapper\00", align 16
@using_libedit_emulation = internal global i32 0, align 4
@doc_module_le = internal constant [75 x i8] c"Importing this module enables command line editing using libedit readline.\00", align 16
@.str.1 = private unnamed_addr constant [9 x i8] c"editline\00", align 1
@.str.2 = private unnamed_addr constant [18 x i8] c"_READLINE_VERSION\00", align 1
@.str.3 = private unnamed_addr constant [26 x i8] c"_READLINE_RUNTIME_VERSION\00", align 1
@rl_readline_version = external global i32, align 4
@.str.4 = private unnamed_addr constant [26 x i8] c"_READLINE_LIBRARY_VERSION\00", align 1
@.str.5 = private unnamed_addr constant [8 x i8] c"backend\00", align 1
@PyOS_ReadlineFunctionPointer = external global ptr, align 8
@.str.35 = private unnamed_addr constant [23 x i8] c"enable-bracketed-paste\00", align 1
@.str.36 = private unnamed_addr constant [4 x i8] c"off\00", align 1
@libedit_append_replace_history_offset = internal global i8 0, align 1
@libedit_history_start = internal global i8 0, align 1
@completer_word_break_characters = internal global ptr null, align 8
@rl_basic_word_break_characters = external global ptr, align 8
@rl_completer_word_break_characters = external global ptr, align 8
@.str.50 = private unnamed_addr constant [7 x i8] c"python\00", align 1
@rl_readline_name = external global ptr, align 8
@.str.51 = private unnamed_addr constant [2 x i8] c"1\00", align 1
@.str.52 = private unnamed_addr constant [2 x i8] c"2\00", align 1
@.str.53 = private unnamed_addr constant [2 x i8] c"X\00", align 1
@emacs_meta_keymap = external global [257 x %struct._keymap_entry], align 16
@sigwinch_ohandler = internal global ptr null, align 8
@rl_startup_hook = external global ptr, align 8
@rl_pre_input_hook = external global ptr, align 8
@rl_attempted_completion_function = external global ptr, align 8
@.str.54 = private unnamed_addr constant [34 x i8] c" \09\0A`~!@#$%^&*()-=+[{]}\\|;:'\22,<>/?\00", align 1
@.str.55 = private unnamed_addr constant [16 x i8] c"enable-meta-key\00", align 1

; Function Attrs: alwaysinline nounwind uwtable
define internal i32 @_Py_IsImmortal(ptr noundef %0) #4 {
  %2 = alloca ptr, align 8
  store ptr %0, ptr %2, align 8, !tbaa !19
  %3 = load ptr, ptr %2, align 8, !tbaa !19
  %4 = getelementptr inbounds nuw %struct._object, ptr %3, i32 0, i32 0
  %5 = getelementptr inbounds nuw %struct.anon, ptr %4, i32 0, i32 0
  %6 = load i32, ptr %5, align 8, !tbaa !23
  %7 = icmp slt i32 %6, 0
  %8 = zext i1 %7 to i32
  ret i32 %8
}

; Function Attrs: nounwind uwtable
define internal void @disable_bracketed_paste() #0 {
  %1 = load i32, ptr @using_libedit_emulation, align 4, !tbaa !8
  %2 = icmp ne i32 %1, 0
  br i1 %2, label %5, label %3

3:                                                ; preds = %0
  %4 = call i32 @rl_variable_bind(ptr noundef @.str.35, ptr noundef @.str.36)
  br label %5

5:                                                ; preds = %3, %0
  ret void
}

; Function Attrs: nounwind uwtable
define internal void @_py_free_history_entry(ptr noundef %0) #0 {
  %2 = alloca ptr, align 8
  %3 = alloca ptr, align 8
  store ptr %0, ptr %2, align 8, !tbaa !25
  call void @llvm.lifetime.start.p0(i64 8, ptr %3) #10
  %4 = load ptr, ptr %2, align 8, !tbaa !25
  %5 = call ptr @free_history_entry(ptr noundef %4)
  store ptr %5, ptr %3, align 8, !tbaa !20
  %6 = load ptr, ptr %3, align 8, !tbaa !20
  call void @free(ptr noundef %6) #10
  call void @llvm.lifetime.end.p0(i64 8, ptr %3) #10
  ret void
}

; Function Attrs: alwaysinline nounwind uwtable
define internal void @Py_DECREF(ptr noundef %0) #4 {
  %2 = alloca ptr, align 8
  store ptr %0, ptr %2, align 8, !tbaa !19
  %3 = load ptr, ptr %2, align 8, !tbaa !19
  %4 = call i32 @_Py_IsImmortal(ptr noundef %3)
  %5 = icmp ne i32 %4, 0
  br i1 %5, label %6, label %7

6:                                                ; preds = %1
  br label %16

7:                                                ; preds = %1
  %8 = load ptr, ptr %2, align 8, !tbaa !19
  %9 = getelementptr inbounds nuw %struct._object, ptr %8, i32 0, i32 0
  %10 = getelementptr inbounds nuw %struct.anon, ptr %9, i32 0, i32 0
  %11 = load i32, ptr %10, align 8, !tbaa !23
  %12 = add i32 %11, -1
  store i32 %12, ptr %10, align 8, !tbaa !23
  %13 = icmp eq i32 %12, 0
  br i1 %13, label %14, label %16

14:                                               ; preds = %7
  %15 = load ptr, ptr %2, align 8, !tbaa !19
  call void @_Py_Dealloc(ptr noundef %15)
  br label %16

16:                                               ; preds = %6, %14, %7
  ret void
}

; Function Attrs: nounwind uwtable
define internal i32 @setup_readline(ptr noundef %0) #0 {
  %2 = alloca i32, align 4
  %3 = alloca ptr, align 8
  %4 = alloca ptr, align 8
  %5 = alloca i32, align 4
  %6 = alloca ptr, align 8
  %7 = alloca ptr, align 8
  store ptr %0, ptr %3, align 8, !tbaa !20
  call void @llvm.lifetime.start.p0(i64 8, ptr %4) #10
  %8 = call ptr @setlocale(i32 noundef 0, ptr noundef null) #10
  %9 = call noalias ptr @strdup(ptr noundef %8) #10
  store ptr %9, ptr %4, align 8, !tbaa !3
  %10 = load ptr, ptr %4, align 8, !tbaa !3
  %11 = icmp ne ptr %10, null
  br i1 %11, label %13, label %12

12:                                               ; preds = %1
  store i32 -1, ptr %2, align 4
  store i32 1, ptr %5, align 4
  br label %81

13:                                               ; preds = %1
  store ptr @.str.50, ptr @rl_readline_name, align 8, !tbaa !3
  %14 = load i32, ptr @using_libedit_emulation, align 4, !tbaa !8
  %15 = icmp ne i32 %14, 0
  br i1 %15, label %16, label %18

16:                                               ; preds = %13
  %17 = call i32 @rl_initialize()
  br label %18

18:                                               ; preds = %16, %13
  call void @add_history(ptr noundef @.str.51)
  %19 = call ptr @history_get(i32 noundef 1)
  %20 = icmp eq ptr %19, null
  br i1 %20, label %21, label %22

21:                                               ; preds = %18
  store i8 0, ptr @libedit_history_start, align 1, !tbaa !23
  br label %23

22:                                               ; preds = %18
  store i8 1, ptr @libedit_history_start, align 1, !tbaa !23
  br label %23

23:                                               ; preds = %22, %21
  call void @add_history(ptr noundef @.str.52)
  call void @llvm.lifetime.start.p0(i64 8, ptr %6) #10
  %24 = call ptr @replace_history_entry(i32 noundef 1, ptr noundef @.str.53, ptr noundef null)
  store ptr %24, ptr %6, align 8, !tbaa !25
  %25 = load ptr, ptr %6, align 8, !tbaa !25
  call void @_py_free_history_entry(ptr noundef %25)
  call void @llvm.lifetime.start.p0(i64 8, ptr %7) #10
  %26 = load i8, ptr @libedit_history_start, align 1, !tbaa !23
  %27 = sext i8 %26 to i32
  %28 = call ptr @history_get(i32 noundef %27)
  store ptr %28, ptr %7, align 8, !tbaa !25
  %29 = load ptr, ptr %7, align 8, !tbaa !25
  %30 = icmp ne ptr %29, null
  br i1 %30, label %31, label %43

31:                                               ; preds = %23
  %32 = load ptr, ptr %7, align 8, !tbaa !25
  %33 = getelementptr inbounds nuw %struct._hist_entry, ptr %32, i32 0, i32 0
  %34 = load ptr, ptr %33, align 8, !tbaa !27
  %35 = icmp ne ptr %34, null
  br i1 %35, label %36, label %43

36:                                               ; preds = %31
  %37 = load ptr, ptr %7, align 8, !tbaa !25
  %38 = getelementptr inbounds nuw %struct._hist_entry, ptr %37, i32 0, i32 0
  %39 = load ptr, ptr %38, align 8, !tbaa !27
  %40 = call i32 @strcmp(ptr noundef %39, ptr noundef @.str.53) #11
  %41 = icmp ne i32 %40, 0
  br i1 %41, label %42, label %43

42:                                               ; preds = %36
  store i8 0, ptr @libedit_append_replace_history_offset, align 1, !tbaa !23
  br label %44

43:                                               ; preds = %36, %31, %23
  store i8 1, ptr @libedit_append_replace_history_offset, align 1, !tbaa !23
  br label %44

44:                                               ; preds = %43, %42
  call void @llvm.lifetime.end.p0(i64 8, ptr %7) #10
  call void @llvm.lifetime.end.p0(i64 8, ptr %6) #10
  call void @clear_history()
  call void @using_history()
  %45 = call i32 @rl_bind_key(i32 noundef 9, ptr noundef @rl_insert)
  %46 = call i32 @rl_bind_key_in_map(i32 noundef 9, ptr noundef @rl_complete, ptr noundef @emacs_meta_keymap)
  %47 = call i32 @rl_bind_key_in_map(i32 noundef 27, ptr noundef @rl_complete, ptr noundef @emacs_meta_keymap)
  %48 = call ptr @PyOS_setsig(i32 noundef 28, ptr noundef @readline_sigwinch_handler)
  store ptr %48, ptr @sigwinch_ohandler, align 8, !tbaa !20
  store ptr @on_startup_hook, ptr @rl_startup_hook, align 8, !tbaa !20
  store ptr @on_pre_input_hook, ptr @rl_pre_input_hook, align 8, !tbaa !20
  store ptr @flex_complete, ptr @rl_attempted_completion_function, align 8, !tbaa !20
  %49 = call noalias ptr @strdup(ptr noundef @.str.54) #10
  store ptr %49, ptr @completer_word_break_characters, align 8, !tbaa !3
  %50 = load i32, ptr @using_libedit_emulation, align 4, !tbaa !8
  %51 = icmp ne i32 %50, 0
  br i1 %51, label %52, label %54

52:                                               ; preds = %44
  %53 = load ptr, ptr @completer_word_break_characters, align 8, !tbaa !3
  store ptr %53, ptr @rl_basic_word_break_characters, align 8, !tbaa !3
  br label %54

54:                                               ; preds = %52, %44
  %55 = load ptr, ptr @completer_word_break_characters, align 8, !tbaa !3
  store ptr %55, ptr @rl_completer_word_break_characters, align 8, !tbaa !3
  %56 = call ptr @PyLong_FromLong(i64 noundef 0)
  %57 = load ptr, ptr %3, align 8, !tbaa !20
  %58 = getelementptr inbounds nuw %struct.readlinestate, ptr %57, i32 0, i32 4
  store ptr %56, ptr %58, align 8, !tbaa !29
  %59 = call ptr @PyLong_FromLong(i64 noundef 0)
  %60 = load ptr, ptr %3, align 8, !tbaa !20
  %61 = getelementptr inbounds nuw %struct.readlinestate, ptr %60, i32 0, i32 5
  store ptr %59, ptr %61, align 8, !tbaa !31
  %62 = load i32, ptr @using_libedit_emulation, align 4, !tbaa !8
  %63 = icmp ne i32 %62, 0
  br i1 %63, label %70, label %64

64:                                               ; preds = %54
  %65 = call i32 @isatty(i32 noundef 1) #10
  %66 = icmp ne i32 %65, 0
  br i1 %66, label %69, label %67

67:                                               ; preds = %64
  %68 = call i32 @rl_variable_bind(ptr noundef @.str.55, ptr noundef @.str.36)
  br label %69

69:                                               ; preds = %67, %64
  br label %70

70:                                               ; preds = %69, %54
  %71 = load i32, ptr @using_libedit_emulation, align 4, !tbaa !8
  %72 = icmp ne i32 %71, 0
  br i1 %72, label %73, label %75

73:                                               ; preds = %70
  %74 = call i32 @rl_read_init_file(ptr noundef null)
  br label %77

75:                                               ; preds = %70
  %76 = call i32 @rl_initialize()
  br label %77

77:                                               ; preds = %75, %73
  call void @disable_bracketed_paste()
  %78 = load ptr, ptr %4, align 8, !tbaa !3
  %79 = call ptr @setlocale(i32 noundef 0, ptr noundef %78) #10
  %80 = load ptr, ptr %4, align 8, !tbaa !3
  call void @free(ptr noundef %80) #10
  store i32 0, ptr %2, align 4
  store i32 1, ptr %5, align 4
  br label %81

81:                                               ; preds = %77, %12
  call void @llvm.lifetime.end.p0(i64 8, ptr %4) #10
  %82 = load i32, ptr %2, align 4
  ret i32 %82
}

; Function Attrs: nounwind uwtable
define ptr @PyInit_readline() #0 {
  %1 = alloca ptr, align 8
  %2 = alloca ptr, align 8
  %3 = alloca ptr, align 8
  %4 = alloca ptr, align 8
  %5 = alloca i32, align 4
  call void @llvm.lifetime.start.p0(i64 8, ptr %2) #10
  store ptr @.str, ptr %2, align 8, !tbaa !3
  call void @llvm.lifetime.start.p0(i64 8, ptr %3) #10
  call void @llvm.lifetime.start.p0(i64 8, ptr %4) #10
  %6 = load ptr, ptr @rl_library_version, align 8, !tbaa !3
  %7 = call i32 @strncmp(ptr noundef %6, ptr noundef @libedit_version_tag, i64 noundef 16) #11
  %8 = icmp eq i32 %7, 0
  br i1 %8, label %9, label %10

9:                                                ; preds = %0
  store i32 1, ptr @using_libedit_emulation, align 4, !tbaa !8
  br label %10

10:                                               ; preds = %9, %0
  %11 = load i32, ptr @using_libedit_emulation, align 4, !tbaa !8
  %12 = icmp ne i32 %11, 0
  br i1 %12, label %13, label %14

13:                                               ; preds = %10
  store ptr @doc_module_le, ptr getelementptr inbounds nuw (%struct.PyModuleDef, ptr @readlinemodule, i32 0, i32 2), align 8, !tbaa !10
  store ptr @.str.1, ptr %2, align 8, !tbaa !3
  br label %14

14:                                               ; preds = %13, %10
  %15 = call ptr @PyModule_Create2(ptr noundef @readlinemodule, i32 noundef 1013)
  store ptr %15, ptr %3, align 8, !tbaa !19
  %16 = load ptr, ptr %3, align 8, !tbaa !19
  %17 = icmp eq ptr %16, null
  br i1 %17, label %18, label %19

18:                                               ; preds = %14
  store ptr null, ptr %1, align 8
  store i32 1, ptr %5, align 4
  br label %63

19:                                               ; preds = %14
  %20 = load ptr, ptr %3, align 8, !tbaa !19
  %21 = call i32 @PyModule_AddIntConstant(ptr noundef %20, ptr noundef @.str.2, i64 noundef 2049)
  %22 = icmp slt i32 %21, 0
  br i1 %22, label %23, label %24

23:                                               ; preds = %19
  br label %61

24:                                               ; preds = %19
  %25 = load ptr, ptr %3, align 8, !tbaa !19
  %26 = load i32, ptr @rl_readline_version, align 4, !tbaa !8
  %27 = sext i32 %26 to i64
  %28 = call i32 @PyModule_AddIntConstant(ptr noundef %25, ptr noundef @.str.3, i64 noundef %27)
  %29 = icmp slt i32 %28, 0
  br i1 %29, label %30, label %31

30:                                               ; preds = %24
  br label %61

31:                                               ; preds = %24
  %32 = load ptr, ptr %3, align 8, !tbaa !19
  %33 = load ptr, ptr @rl_library_version, align 8, !tbaa !3
  %34 = call i32 @PyModule_AddStringConstant(ptr noundef %32, ptr noundef @.str.4, ptr noundef %33)
  %35 = icmp slt i32 %34, 0
  br i1 %35, label %36, label %37

36:                                               ; preds = %31
  br label %61

37:                                               ; preds = %31
  %38 = load ptr, ptr %3, align 8, !tbaa !19
  %39 = load ptr, ptr %2, align 8, !tbaa !3
  %40 = call i32 @PyModule_AddStringConstant(ptr noundef %38, ptr noundef @.str.5, ptr noundef %39)
  %41 = icmp slt i32 %40, 0
  br i1 %41, label %42, label %43

42:                                               ; preds = %37
  br label %61

43:                                               ; preds = %37
  %44 = load ptr, ptr %3, align 8, !tbaa !19
  %45 = call ptr @PyModule_GetState(ptr noundef %44)
  store ptr %45, ptr %4, align 8, !tbaa !20
  %46 = load ptr, ptr %4, align 8, !tbaa !20
  %47 = icmp eq ptr %46, null
  br i1 %47, label %48, label %49

48:                                               ; preds = %43
  br label %61

49:                                               ; preds = %43
  store ptr @call_readline, ptr @PyOS_ReadlineFunctionPointer, align 8, !tbaa !20
  %50 = load ptr, ptr %4, align 8, !tbaa !20
  %51 = call i32 @setup_readline(ptr noundef %50)
  %52 = icmp slt i32 %51, 0
  br i1 %52, label %53, label %55

53:                                               ; preds = %49
  %54 = call ptr @PyErr_NoMemory()
  br label %61

55:                                               ; preds = %49
  %56 = call ptr @PyErr_Occurred()
  %57 = icmp ne ptr %56, null
  br i1 %57, label %58, label %59

58:                                               ; preds = %55
  br label %61

59:                                               ; preds = %55
  %60 = load ptr, ptr %3, align 8, !tbaa !19
  store ptr %60, ptr %1, align 8
  store i32 1, ptr %5, align 4
  br label %63

61:                                               ; preds = %58, %53, %48, %42, %36, %30, %23
  %62 = load ptr, ptr %3, align 8, !tbaa !19
  call void @Py_DECREF(ptr noundef %62)
  store ptr null, ptr %1, align 8
  store i32 1, ptr %5, align 4
  br label %63

63:                                               ; preds = %61, %59, %18
  call void @llvm.lifetime.end.p0(i64 8, ptr %4) #10
  call void @llvm.lifetime.end.p0(i64 8, ptr %3) #10
  call void @llvm.lifetime.end.p0(i64 8, ptr %2) #10
  %64 = load ptr, ptr %1, align 8
  ret ptr %64
}