; Function Attrs: nounwind uwtable
define ptr @PyInit_readline() local_unnamed_addr #0 {
  %1 = load ptr, ptr @rl_library_version, align 8, !tbaa !3
  %2 = tail call i32 @strncmp(ptr noundef nonnull dereferenceable(1) %1, ptr noundef nonnull dereferenceable(17) @libedit_version_tag, i64 noundef 16) #13
  %3 = icmp eq i32 %2, 0
  br i1 %3, label %.thread, label %4

.thread:                                          ; preds = %0
  store i1 true, ptr @using_libedit_emulation, align 4
  br label %5

4:                                                ; preds = %0
  %.b.pr = load i1, ptr @using_libedit_emulation, align 4
  br i1 %.b.pr, label %5, label %6

5:                                                ; preds = %.thread, %4
  store ptr @doc_module_le, ptr getelementptr inbounds nuw (i8, ptr @readlinemodule, i64 48), align 8, !tbaa !8
  br label %6

6:                                                ; preds = %5, %4
  %.012 = phi ptr [ @.str.1, %5 ], [ @.str, %4 ]
  %7 = tail call ptr @PyModule_Create2(ptr noundef nonnull @readlinemodule, i32 noundef 1013) #14
  %8 = icmp eq ptr %7, null
  br i1 %8, label %Py_DECREF.exit, label %9

9:                                                ; preds = %6
  %10 = tail call i32 @PyModule_AddIntConstant(ptr noundef nonnull %7, ptr noundef nonnull @.str.2, i64 noundef 2049) #14
  %11 = icmp slt i32 %10, 0
  br i1 %11, label %74, label %12

12:                                               ; preds = %9
  %13 = load i32, ptr @rl_readline_version, align 4, !tbaa !17
  %14 = sext i32 %13 to i64
  %15 = tail call i32 @PyModule_AddIntConstant(ptr noundef nonnull %7, ptr noundef nonnull @.str.3, i64 noundef %14) #14
  %16 = icmp slt i32 %15, 0
  br i1 %16, label %74, label %17

17:                                               ; preds = %12
  %18 = load ptr, ptr @rl_library_version, align 8, !tbaa !3
  %19 = tail call i32 @PyModule_AddStringConstant(ptr noundef nonnull %7, ptr noundef nonnull @.str.4, ptr noundef %18) #14
  %20 = icmp slt i32 %19, 0
  br i1 %20, label %74, label %21

21:                                               ; preds = %17
  %22 = tail call i32 @PyModule_AddStringConstant(ptr noundef nonnull %7, ptr noundef nonnull @.str.5, ptr noundef nonnull %.012) #14
  %23 = icmp slt i32 %22, 0
  br i1 %23, label %74, label %24

24:                                               ; preds = %21
  %25 = tail call ptr @PyModule_GetState(ptr noundef nonnull %7) #14
  %26 = icmp eq ptr %25, null
  br i1 %26, label %74, label %27

27:                                               ; preds = %24
  store ptr @call_readline, ptr @PyOS_ReadlineFunctionPointer, align 8, !tbaa !19
  %28 = tail call ptr @setlocale(i32 noundef 0, ptr noundef null) #14
  %29 = tail call noalias ptr @strdup(ptr noundef %28) #14
  %.not.i15 = icmp eq ptr %29, null
  br i1 %.not.i15, label %69, label %30

30:                                               ; preds = %27
  store ptr @.str.50, ptr @rl_readline_name, align 8, !tbaa !3
  %.b14.i = load i1, ptr @using_libedit_emulation, align 4
  br i1 %.b14.i, label %31, label %33

31:                                               ; preds = %30
  %32 = tail call i32 @rl_initialize() #14
  br label %33

33:                                               ; preds = %31, %30
  tail call void @add_history(ptr noundef nonnull @.str.51) #14
  %34 = tail call ptr @history_get(i32 noundef 1) #14
  %35 = icmp ne ptr %34, null
  store i1 %35, ptr @libedit_history_start, align 1
  tail call void @add_history(ptr noundef nonnull @.str.52) #14
  %36 = tail call ptr @replace_history_entry(i32 noundef 1, ptr noundef nonnull @.str.53, ptr noundef null) #14
  %37 = tail call ptr @free_history_entry(ptr noundef %36) #14
  tail call void @free(ptr noundef %37) #14
  %.b15.i = load i1, ptr @libedit_history_start, align 1
  %38 = zext i1 %.b15.i to i32
  %39 = tail call ptr @history_get(i32 noundef %38) #14
  %.not16.i = icmp eq ptr %39, null
  br i1 %.not16.i, label %46, label %40

40:                                               ; preds = %33
  %41 = load ptr, ptr %39, align 8, !tbaa !20
  %.not17.i = icmp eq ptr %41, null
  br i1 %.not17.i, label %46, label %sub_0.i

sub_0.i:                                          ; preds = %40
  %42 = load i8, ptr %41, align 1
  %.not21.i = icmp eq i8 %42, 88
  br i1 %.not21.i, label %.tail.i, label %.tail.thread.i

.tail.i:                                          ; preds = %sub_0.i
  %43 = getelementptr inbounds nuw i8, ptr %41, i64 1
  %44 = load i8, ptr %43, align 1
  %45 = icmp eq i8 %44, 0
  br i1 %45, label %46, label %.tail.thread.i

46:                                               ; preds = %.tail.i, %40, %33
  br label %.tail.thread.i

.tail.thread.i:                                   ; preds = %46, %.tail.i, %sub_0.i
  %storemerge.i = phi i1 [ true, %46 ], [ false, %.tail.i ], [ false, %sub_0.i ]
  store i1 %storemerge.i, ptr @libedit_append_replace_history_offset, align 1
  tail call void @clear_history() #14
  tail call void @using_history() #14
  %47 = tail call i32 @rl_bind_key(i32 noundef 9, ptr noundef nonnull @rl_insert) #14
  %48 = tail call i32 @rl_bind_key_in_map(i32 noundef 9, ptr noundef nonnull @rl_complete, ptr noundef nonnull @emacs_meta_keymap) #14
  %49 = tail call i32 @rl_bind_key_in_map(i32 noundef 27, ptr noundef nonnull @rl_complete, ptr noundef nonnull @emacs_meta_keymap) #14
  %50 = tail call ptr @PyOS_setsig(i32 noundef 28, ptr noundef nonnull @readline_sigwinch_handler) #14
  store ptr %50, ptr @sigwinch_ohandler, align 8, !tbaa !19
  store ptr @on_startup_hook, ptr @rl_startup_hook, align 8, !tbaa !19
  store ptr @on_pre_input_hook, ptr @rl_pre_input_hook, align 8, !tbaa !19
  store ptr @flex_complete, ptr @rl_attempted_completion_function, align 8, !tbaa !19
  %51 = tail call noalias dereferenceable_or_null(34) ptr @strdup(ptr noundef nonnull @.str.54) #14
  store ptr %51, ptr @completer_word_break_characters, align 8, !tbaa !3
  %.b13.i = load i1, ptr @using_libedit_emulation, align 4
  br i1 %.b13.i, label %52, label %53

52:                                               ; preds = %.tail.thread.i
  store ptr %51, ptr @rl_basic_word_break_characters, align 8, !tbaa !3
  br label %53

53:                                               ; preds = %52, %.tail.thread.i
  store ptr %51, ptr @rl_completer_word_break_characters, align 8, !tbaa !3
  %54 = tail call ptr @PyLong_FromLong(i64 noundef 0) #14
  %55 = getelementptr inbounds nuw i8, ptr %25, i64 32
  store ptr %54, ptr %55, align 8, !tbaa !22
  %56 = tail call ptr @PyLong_FromLong(i64 noundef 0) #14
  %57 = getelementptr inbounds nuw i8, ptr %25, i64 40
  store ptr %56, ptr %57, align 8, !tbaa !24
  %.b12.i = load i1, ptr @using_libedit_emulation, align 4
  br i1 %.b12.i, label %.thread.i, label %58

58:                                               ; preds = %53
  %59 = tail call i32 @isatty(i32 noundef 1) #14
  %.not19.i = icmp eq i32 %59, 0
  br i1 %.not19.i, label %60, label %62

60:                                               ; preds = %58
  %61 = tail call i32 @rl_variable_bind(ptr noundef nonnull @.str.55, ptr noundef nonnull @.str.36) #14
  br label %62

62:                                               ; preds = %60, %58
  %.b.pr.i = load i1, ptr @using_libedit_emulation, align 4
  br i1 %.b.pr.i, label %.thread.i, label %64

.thread.i:                                        ; preds = %62, %53
  %63 = tail call i32 @rl_read_init_file(ptr noundef null) #14
  br label %66

64:                                               ; preds = %62
  %65 = tail call i32 @rl_initialize() #14
  br label %66

66:                                               ; preds = %64, %.thread.i
  %.b.i.i = load i1, ptr @using_libedit_emulation, align 4
  br i1 %.b.i.i, label %71, label %67

67:                                               ; preds = %66
  %68 = tail call i32 @rl_variable_bind(ptr noundef nonnull @.str.35, ptr noundef nonnull @.str.36) #14
  br label %71

69:                                               ; preds = %27
  %70 = tail call ptr @PyErr_NoMemory() #14
  br label %74

71:                                               ; preds = %67, %66
  %72 = tail call ptr @setlocale(i32 noundef 0, ptr noundef nonnull %29) #14
  tail call void @free(ptr noundef nonnull %29) #14
  %73 = tail call ptr @PyErr_Occurred() #14
  %.not = icmp eq ptr %73, null
  br i1 %.not, label %Py_DECREF.exit, label %74

74:                                               ; preds = %71, %24, %21, %17, %12, %9, %69
  %75 = load i32, ptr %7, align 8, !tbaa !25
  %.not.i = icmp sgt i32 %75, -1
  br i1 %.not.i, label %76, label %Py_DECREF.exit

76:                                               ; preds = %74
  %77 = add nsw i32 %75, -1
  store i32 %77, ptr %7, align 8, !tbaa !25
  %78 = icmp eq i32 %77, 0
  br i1 %78, label %79, label %Py_DECREF.exit

79:                                               ; preds = %76
  tail call void @_Py_Dealloc(ptr noundef nonnull %7) #14
  br label %Py_DECREF.exit

Py_DECREF.exit:                                   ; preds = %79, %76, %74, %71, %6
  %.0 = phi ptr [ null, %6 ], [ %7, %71 ], [ null, %74 ], [ null, %76 ], [ null, %79 ]
  ret ptr %.0
}